target datalayout = "e-m:e-p270:32:32-p271:32:32-p272:64:64-i64:64-i128:128-f80:128-n8:16:32:64-S128"
target triple = "x86_64-pc-linux-gnu"

%struct._object = type { %union.anon, ptr }
%union.anon = type { i64 }
%struct.binascii_state = type { ptr, ptr }
%struct.Py_buffer = type { ptr, ptr, i64, i64, i32, i32, ptr, ptr, ptr, ptr, ptr }
%struct.PyVarObject = type { %struct._object, i64 }
%struct._PyBytesWriter = type { ptr, i64, i64, i32, i32, i32, [512 x i8] }

@.str.30 = private unnamed_addr constant [30 x i8] c"Too much data for base64 line\00", align 1
@table_b2a_base64 = internal constant [65 x i8] c"ABCDEFGHIJKLMNOPQRSTUVWXYZabcdefghijklmnopqrstuvwxyz0123456789+/\00", align 16

; Function Attrs: inlinehint nounwind uwtable
define internal ptr @get_binascii_state(ptr noundef %0) #4 {
  %2 = alloca ptr, align 8
  store ptr %0, ptr %2, align 8, !tbaa !3
  %3 = load ptr, ptr %2, align 8, !tbaa !3
  %4 = call ptr @PyModule_GetState(ptr noundef %3)
  ret ptr %4
}

; Function Attrs: inlinehint nounwind uwtable
define internal i64 @Py_SIZE(ptr noundef %0) #4 {
  %2 = alloca ptr, align 8
  store ptr %0, ptr %2, align 8, !tbaa !3
  %3 = load ptr, ptr %2, align 8, !tbaa !3
  %4 = getelementptr inbounds nuw %struct.PyVarObject, ptr %3, i32 0, i32 1
  %5 = load i64, ptr %4, align 8, !tbaa !48
  ret i64 %5
}

; Function Attrs: nounwind uwtable
define internal ptr @binascii_b2a_base64_impl(ptr noundef %0, ptr noundef %1, i32 noundef %2) #0 {
  %4 = alloca ptr, align 8
  %5 = alloca ptr, align 8
  %6 = alloca ptr, align 8
  %7 = alloca i32, align 4
  %8 = alloca ptr, align 8
  %9 = alloca ptr, align 8
  %10 = alloca i32, align 4
  %11 = alloca i8, align 1
  %12 = alloca i32, align 4
  %13 = alloca i64, align 8
  %14 = alloca i64, align 8
  %15 = alloca %struct._PyBytesWriter, align 8
  %16 = alloca ptr, align 8
  %17 = alloca i32, align 4
  store ptr %0, ptr %5, align 8, !tbaa !3
  store ptr %1, ptr %6, align 8, !tbaa !8
  store i32 %2, ptr %7, align 4, !tbaa !13
  call void @llvm.lifetime.start.p0(i64 8, ptr %8) #7
  call void @llvm.lifetime.start.p0(i64 8, ptr %9) #7
  call void @llvm.lifetime.start.p0(i64 4, ptr %10) #7
  store i32 0, ptr %10, align 4, !tbaa !13
  call void @llvm.lifetime.start.p0(i64 1, ptr %11) #7
  call void @llvm.lifetime.start.p0(i64 4, ptr %12) #7
  store i32 0, ptr %12, align 4, !tbaa !13
  call void @llvm.lifetime.start.p0(i64 8, ptr %13) #7
  call void @llvm.lifetime.start.p0(i64 8, ptr %14) #7
  call void @llvm.lifetime.start.p0(i64 552, ptr %15) #7
  call void @llvm.lifetime.start.p0(i64 8, ptr %16) #7
  %18 = load ptr, ptr %6, align 8, !tbaa !8
  %19 = getelementptr inbounds nuw %struct.Py_buffer, ptr %18, i32 0, i32 0
  %20 = load ptr, ptr %19, align 8, !tbaa !24
  store ptr %20, ptr %9, align 8, !tbaa !35
  %21 = load ptr, ptr %6, align 8, !tbaa !8
  %22 = getelementptr inbounds nuw %struct.Py_buffer, ptr %21, i32 0, i32 2
  %23 = load i64, ptr %22, align 8, !tbaa !25
  store i64 %23, ptr %13, align 8, !tbaa !23
  call void @_PyBytesWriter_Init(ptr noundef %15)
  %24 = load i64, ptr %13, align 8, !tbaa !23
  %25 = icmp sgt i64 %24, 4611686018427387902
  br i1 %25, label %26, label %36

26:                                               ; preds = %3
  %27 = load ptr, ptr %5, align 8, !tbaa !3
  %28 = call ptr @get_binascii_state(ptr noundef %27)
  store ptr %28, ptr %16, align 8, !tbaa !9
  %29 = load ptr, ptr %16, align 8, !tbaa !9
  %30 = icmp eq ptr %29, null
  br i1 %30, label %31, label %32

31:                                               ; preds = %26
  store ptr null, ptr %4, align 8
  store i32 1, ptr %17, align 4
  br label %128

32:                                               ; preds = %26
  %33 = load ptr, ptr %16, align 8, !tbaa !9
  %34 = getelementptr inbounds nuw %struct.binascii_state, ptr %33, i32 0, i32 0
  %35 = load ptr, ptr %34, align 8, !tbaa !11
  call void @PyErr_SetString(ptr noundef %35, ptr noundef @.str.30)
  store ptr null, ptr %4, align 8
  store i32 1, ptr %17, align 4
  br label %128

36:                                               ; preds = %3
  %37 = load i64, ptr %13, align 8, !tbaa !23
  %38 = mul i64 %37, 2
  %39 = add i64 %38, 2
  store i64 %39, ptr %14, align 8, !tbaa !23
  %40 = load i32, ptr %7, align 4, !tbaa !13
  %41 = icmp ne i32 %40, 0
  br i1 %41, label %42, label %45

42:                                               ; preds = %36
  %43 = load i64, ptr %14, align 8, !tbaa !23
  %44 = add i64 %43, 1
  store i64 %44, ptr %14, align 8, !tbaa !23
  br label %45

45:                                               ; preds = %42, %36
  %46 = load i64, ptr %14, align 8, !tbaa !23
  %47 = call ptr @_PyBytesWriter_Alloc(ptr noundef %15, i64 noundef %46)
  store ptr %47, ptr %8, align 8, !tbaa !35
  %48 = load ptr, ptr %8, align 8, !tbaa !35
  %49 = icmp eq ptr %48, null
  br i1 %49, label %50, label %51

50:                                               ; preds = %45
  store ptr null, ptr %4, align 8
  store i32 1, ptr %17, align 4
  br label %128

51:                                               ; preds = %45
  br label %52

52:                                               ; preds = %83, %51
  %53 = load i64, ptr %13, align 8, !tbaa !23
  %54 = icmp sgt i64 %53, 0
  br i1 %54, label %55, label %88

55:                                               ; preds = %52
  %56 = load i32, ptr %12, align 4, !tbaa !13
  %57 = shl i32 %56, 8
  %58 = load ptr, ptr %9, align 8, !tbaa !35
  %59 = load i8, ptr %58, align 1, !tbaa !36
  %60 = zext i8 %59 to i32
  %61 = or i32 %57, %60
  store i32 %61, ptr %12, align 4, !tbaa !13
  %62 = load i32, ptr %10, align 4, !tbaa !13
  %63 = add i32 %62, 8
  store i32 %63, ptr %10, align 4, !tbaa !13
  br label %64

64:                                               ; preds = %67, %55
  %65 = load i32, ptr %10, align 4, !tbaa !13
  %66 = icmp sge i32 %65, 6
  br i1 %66, label %67, label %82

67:                                               ; preds = %64
  %68 = load i32, ptr %12, align 4, !tbaa !13
  %69 = load i32, ptr %10, align 4, !tbaa !13
  %70 = sub i32 %69, 6
  %71 = lshr i32 %68, %70
  %72 = and i32 %71, 63
  %73 = trunc i32 %72 to i8
  store i8 %73, ptr %11, align 1, !tbaa !36
  %74 = load i32, ptr %10, align 4, !tbaa !13
  %75 = sub i32 %74, 6
  store i32 %75, ptr %10, align 4, !tbaa !13
  %76 = load i8, ptr %11, align 1, !tbaa !36
  %77 = zext i8 %76 to i64
  %78 = getelementptr [65 x i8], ptr @table_b2a_base64, i64 0, i64 %77
  %79 = load i8, ptr %78, align 1, !tbaa !36
  %80 = load ptr, ptr %8, align 8, !tbaa !35
  %81 = getelementptr i8, ptr %80, i32 1
  store ptr %81, ptr %8, align 8, !tbaa !35
  store i8 %79, ptr %80, align 1, !tbaa !36
  br label %64, !llvm.loop !50

82:                                               ; preds = %64
  br label %83

83:                                               ; preds = %82
  %84 = load i64, ptr %13, align 8, !tbaa !23
  %85 = add i64 %84, -1
  store i64 %85, ptr %13, align 8, !tbaa !23
  %86 = load ptr, ptr %9, align 8, !tbaa !35
  %87 = getelementptr i8, ptr %86, i32 1
  store ptr %87, ptr %9, align 8, !tbaa !35
  br label %52, !llvm.loop !51

88:                                               ; preds = %52
  %89 = load i32, ptr %10, align 4, !tbaa !13
  %90 = icmp eq i32 %89, 2
  br i1 %90, label %91, label %104

91:                                               ; preds = %88
  %92 = load i32, ptr %12, align 4, !tbaa !13
  %93 = and i32 %92, 3
  %94 = shl i32 %93, 4
  %95 = zext i32 %94 to i64
  %96 = getelementptr [65 x i8], ptr @table_b2a_base64, i64 0, i64 %95
  %97 = load i8, ptr %96, align 1, !tbaa !36
  %98 = load ptr, ptr %8, align 8, !tbaa !35
  %99 = getelementptr i8, ptr %98, i32 1
  store ptr %99, ptr %8, align 8, !tbaa !35
  store i8 %97, ptr %98, align 1, !tbaa !36
  %100 = load ptr, ptr %8, align 8, !tbaa !35
  %101 = getelementptr i8, ptr %100, i32 1
  store ptr %101, ptr %8, align 8, !tbaa !35
  store i8 61, ptr %100, align 1, !tbaa !36
  %102 = load ptr, ptr %8, align 8, !tbaa !35
  %103 = getelementptr i8, ptr %102, i32 1
  store ptr %103, ptr %8, align 8, !tbaa !35
  store i8 61, ptr %102, align 1, !tbaa !36
  br label %119

104:                                              ; preds = %88
  %105 = load i32, ptr %10, align 4, !tbaa !13
  %106 = icmp eq i32 %105, 4
  br i1 %106, label %107, label %118

107:                                              ; preds = %104
  %108 = load i32, ptr %12, align 4, !tbaa !13
  %109 = and i32 %108, 15
  %110 = shl i32 %109, 2
  %111 = zext i32 %110 to i64
  %112 = getelementptr [65 x i8], ptr @table_b2a_base64, i64 0, i64 %111
  %113 = load i8, ptr %112, align 1, !tbaa !36
  %114 = load ptr, ptr %8, align 8, !tbaa !35
  %115 = getelementptr i8, ptr %114, i32 1
  store ptr %115, ptr %8, align 8, !tbaa !35
  store i8 %113, ptr %114, align 1, !tbaa !36
  %116 = load ptr, ptr %8, align 8, !tbaa !35
  %117 = getelementptr i8, ptr %116, i32 1
  store ptr %117, ptr %8, align 8, !tbaa !35
  store i8 61, ptr %116, align 1, !tbaa !36
  br label %118

118:                                              ; preds = %107, %104
  br label %119

119:                                              ; preds = %118, %91
  %120 = load i32, ptr %7, align 4, !tbaa !13
  %121 = icmp ne i32 %120, 0
  br i1 %121, label %122, label %125

122:                                              ; preds = %119
  %123 = load ptr, ptr %8, align 8, !tbaa !35
  %124 = getelementptr i8, ptr %123, i32 1
  store ptr %124, ptr %8, align 8, !tbaa !35
  store i8 10, ptr %123, align 1, !tbaa !36
  br label %125

125:                                              ; preds = %122, %119
  %126 = load ptr, ptr %8, align 8, !tbaa !35
  %127 = call ptr @_PyBytesWriter_Finish(ptr noundef %15, ptr noundef %126)
  store ptr %127, ptr %4, align 8
  store i32 1, ptr %17, align 4
  br label %128

128:                                              ; preds = %125, %50, %32, %31
  call void @llvm.lifetime.end.p0(i64 8, ptr %16) #7
  call void @llvm.lifetime.end.p0(i64 552, ptr %15) #7
  call void @llvm.lifetime.end.p0(i64 8, ptr %14) #7
  call void @llvm.lifetime.end.p0(i64 8, ptr %13) #7
  call void @llvm.lifetime.end.p0(i64 4, ptr %12) #7
  call void @llvm.lifetime.end.p0(i64 1, ptr %11) #7
  call void @llvm.lifetime.end.p0(i64 4, ptr %10) #7
  call void @llvm.lifetime.end.p0(i64 8, ptr %9) #7
  call void @llvm.lifetime.end.p0(i64 8, ptr %8) #7
  %129 = load ptr, ptr %4, align 8
  ret ptr %129
}

; Function Attrs: inlinehint nounwind uwtable
define internal i64 @PyTuple_GET_SIZE(ptr noundef %0) #4 {
  %2 = alloca ptr, align 8
  %3 = alloca ptr, align 8
  store ptr %0, ptr %2, align 8, !tbaa !3
  call void @llvm.lifetime.start.p0(i64 8, ptr %3) #7
  %4 = load ptr, ptr %2, align 8, !tbaa !3
  store ptr %4, ptr %3, align 8, !tbaa !8
  %5 = load ptr, ptr %3, align 8, !tbaa !8
  %6 = call i64 @Py_SIZE(ptr noundef %5)
  call void @llvm.lifetime.end.p0(i64 8, ptr %3) #7
  ret i64 %6
}

; Function Attrs: nounwind uwtable
define internal ptr @binascii_b2a_base64(ptr noundef %0, ptr noundef %1, i64 noundef %2, ptr noundef %3) #0 {
  %5 = alloca ptr, align 8
  %6 = alloca ptr, align 8
  %7 = alloca i64, align 8
  %8 = alloca ptr, align 8
  %9 = alloca ptr, align 8
  %10 = alloca [2 x ptr], align 16
  %11 = alloca i64, align 8
  %12 = alloca %struct.Py_buffer, align 8
  %13 = alloca i32, align 4
  store ptr %0, ptr %5, align 8, !tbaa !3
  store ptr %1, ptr %6, align 8, !tbaa !16
  store i64 %2, ptr %7, align 8, !tbaa !23
  store ptr %3, ptr %8, align 8, !tbaa !3
  call void @llvm.lifetime.start.p0(i64 8, ptr %9) #7
  store ptr null, ptr %9, align 8, !tbaa !3
  call void @llvm.lifetime.start.p0(i64 16, ptr %10) #7
  call void @llvm.lifetime.start.p0(i64 8, ptr %11) #7
  %14 = load i64, ptr %7, align 8, !tbaa !23
  %15 = load ptr, ptr %8, align 8, !tbaa !3
  %16 = icmp ne ptr %15, null
  br i1 %16, label %17, label %20

17:                                               ; preds = %4
  %18 = load ptr, ptr %8, align 8, !tbaa !3
  %19 = call i64 @PyTuple_GET_SIZE(ptr noundef %18)
  br label %21

20:                                               ; preds = %4
  br label %21

21:                                               ; preds = %20, %17
  %22 = phi i64 [ %19, %17 ], [ 0, %20 ]
  %23 = add i64 %14, %22
  %24 = sub i64 %23, 1
  store i64 %24, ptr %11, align 8, !tbaa !23
  call void @llvm.lifetime.start.p0(i64 80, ptr %12) #7
  call void @llvm.memset.p0.i64(ptr align 8 %12, i8 0, i64 80, i1 false)
  call void @llvm.lifetime.start.p0(i64 4, ptr %13) #7
  store i32 1, ptr %13, align 4, !tbaa !13
  %25 = load ptr, ptr %8, align 8, !tbaa !3
  %26 = icmp eq ptr %25, null
  br i1 %26, label %27, label %38

27:                                               ; preds = %21
  %28 = load i64, ptr %7, align 8, !tbaa !23
  %29 = icmp sle i64 1, %28
  br i1 %29, label %30, label %38

30:                                               ; preds = %27
  %31 = load i64, ptr %7, align 8, !tbaa !23
  %32 = icmp sle i64 %31, 1
  br i1 %32, label %33, label %38

33:                                               ; preds = %30
  %34 = load ptr, ptr %6, align 8, !tbaa !16
  %35 = icmp ne ptr %34, null
  br i1 %35, label %36, label %38

36:                                               ; preds = %33
  %37 = load ptr, ptr %6, align 8, !tbaa !16
  br label %44

38:                                               ; preds = %33, %30, %27, %21
  %39 = load ptr, ptr %6, align 8, !tbaa !16
  %40 = load i64, ptr %7, align 8, !tbaa !23
  %41 = load ptr, ptr %8, align 8, !tbaa !3
  %42 = getelementptr inbounds [2 x ptr], ptr %10, i64 0, i64 0
  %43 = call ptr @_PyArg_UnpackKeywords(ptr noundef %39, i64 noundef %40, ptr noundef null, ptr noundef %41, ptr noundef @binascii_b2a_base64._parser, i32 noundef 1, i32 noundef 1, i32 noundef 0, i32 noundef 0, ptr noundef %42)
  br label %44

44:                                               ; preds = %38, %36
  %45 = phi ptr [ %37, %36 ], [ %43, %38 ]
  store ptr %45, ptr %6, align 8, !tbaa !16
  %46 = load ptr, ptr %6, align 8, !tbaa !16
  %47 = icmp ne ptr %46, null
  br i1 %47, label %49, label %48

48:                                               ; preds = %44
  br label %73

49:                                               ; preds = %44
  %50 = load ptr, ptr %6, align 8, !tbaa !16
  %51 = getelementptr ptr, ptr %50, i64 0
  %52 = load ptr, ptr %51, align 8, !tbaa !3
  %53 = call i32 @PyObject_GetBuffer(ptr noundef %52, ptr noundef %12, i32 noundef 0)
  %54 = icmp ne i32 %53, 0
  br i1 %54, label %55, label %56

55:                                               ; preds = %49
  br label %73

56:                                               ; preds = %49
  %57 = load i64, ptr %11, align 8, !tbaa !23
  %58 = icmp ne i64 %57, 0
  br i1 %58, label %60, label %59

59:                                               ; preds = %56
  br label %69

60:                                               ; preds = %56
  %61 = load ptr, ptr %6, align 8, !tbaa !16
  %62 = getelementptr ptr, ptr %61, i64 1
  %63 = load ptr, ptr %62, align 8, !tbaa !3
  %64 = call i32 @PyObject_IsTrue(ptr noundef %63)
  store i32 %64, ptr %13, align 4, !tbaa !13
  %65 = load i32, ptr %13, align 4, !tbaa !13
  %66 = icmp slt i32 %65, 0
  br i1 %66, label %67, label %68

67:                                               ; preds = %60
  br label %73

68:                                               ; preds = %60
  br label %69

69:                                               ; preds = %68, %59
  %70 = load ptr, ptr %5, align 8, !tbaa !3
  %71 = load i32, ptr %13, align 4, !tbaa !13
  %72 = call ptr @binascii_b2a_base64_impl(ptr noundef %70, ptr noundef %12, i32 noundef %71)
  store ptr %72, ptr %9, align 8, !tbaa !3
  br label %73

73:                                               ; preds = %69, %67, %55, %48
  %74 = getelementptr inbounds nuw %struct.Py_buffer, ptr %12, i32 0, i32 1
  %75 = load ptr, ptr %74, align 8, !tbaa !18
  %76 = icmp ne ptr %75, null
  br i1 %76, label %77, label %78

77:                                               ; preds = %73
  call void @PyBuffer_Release(ptr noundef %12)
  br label %78

78:                                               ; preds = %77, %73
  %79 = load ptr, ptr %9, align 8, !tbaa !3
  call void @llvm.lifetime.end.p0(i64 4, ptr %13) #7
  call void @llvm.lifetime.end.p0(i64 80, ptr %12) #7
  call void @llvm.lifetime.end.p0(i64 8, ptr %11) #7
  call void @llvm.lifetime.end.p0(i64 16, ptr %10) #7
  call void @llvm.lifetime.end.p0(i64 8, ptr %9) #7
  ret ptr %79
}