; Function Attrs: nounwind uwtable
define internal ptr @binascii_b2a_base64(ptr noundef %0, ptr noundef %1, i64 noundef %2, ptr noundef %3) #0 {
  %5 = alloca %struct._PyBytesWriter, align 8
  %6 = alloca [2 x ptr], align 16
  %7 = alloca %struct.Py_buffer, align 8
  call void @llvm.lifetime.start.p0(i64 16, ptr nonnull %6) #5
  %.not = icmp eq ptr %3, null
  br i1 %.not, label %10, label %8

8:                                                ; preds = %4
  %9 = getelementptr i8, ptr %3, i64 16
  %.val = load i64, ptr %9, align 8, !tbaa !22
  br label %10

10:                                               ; preds = %4, %8
  %11 = phi i64 [ %.val, %8 ], [ 0, %4 ]
  %12 = add i64 %11, %2
  call void @llvm.lifetime.start.p0(i64 80, ptr nonnull %7) #5
  call void @llvm.memset.p0.i64(ptr noundef nonnull align 8 dereferenceable(80) %7, i8 0, i64 80, i1 false)
  %13 = icmp eq i64 %2, 1
  %14 = icmp ne ptr %1, null
  %15 = and i1 %14, %13
  %or.cond5 = and i1 %15, %.not
  br i1 %or.cond5, label %.thread, label %16

16:                                               ; preds = %10
  %17 = call ptr @_PyArg_UnpackKeywords(ptr noundef %1, i64 noundef %2, ptr noundef null, ptr noundef %3, ptr noundef nonnull @binascii_b2a_base64._parser, i32 noundef 1, i32 noundef 1, i32 noundef 0, i32 noundef 0, ptr noundef nonnull %6) #5
  %.not28 = icmp eq ptr %17, null
  br i1 %.not28, label %78, label %.thread

.thread:                                          ; preds = %10, %16
  %18 = phi ptr [ %17, %16 ], [ %1, %10 ]
  %19 = load ptr, ptr %18, align 8, !tbaa !10
  %20 = call i32 @PyObject_GetBuffer(ptr noundef %19, ptr noundef nonnull %7, i32 noundef 0) #5
  %.not29 = icmp eq i32 %20, 0
  br i1 %.not29, label %21, label %78

21:                                               ; preds = %.thread
  %.not30 = icmp eq i64 %12, 1
  br i1 %.not30, label %27, label %22

22:                                               ; preds = %21
  %23 = getelementptr i8, ptr %18, i64 8
  %24 = load ptr, ptr %23, align 8, !tbaa !10
  %25 = call i32 @PyObject_IsTrue(ptr noundef %24) #5
  %26 = icmp slt i32 %25, 0
  br i1 %26, label %78, label %27

27:                                               ; preds = %22, %21
  %.0 = phi i32 [ %25, %22 ], [ 1, %21 ]
  %.val32 = load ptr, ptr %7, align 8, !tbaa !12
  %28 = getelementptr inbounds nuw i8, ptr %7, i64 16
  %.val33 = load i64, ptr %28, align 8, !tbaa !18
  call void @llvm.lifetime.start.p0(i64 552, ptr nonnull %5) #5
  call void @_PyBytesWriter_Init(ptr noundef nonnull %5) #5
  %29 = icmp sgt i64 %.val33, 4611686018427387902
  br i1 %29, label %30, label %35

30:                                               ; preds = %27
  %31 = call ptr @PyModule_GetState(ptr noundef %0) #5
  %32 = icmp eq ptr %31, null
  br i1 %32, label %binascii_b2a_base64_impl.exit, label %33

33:                                               ; preds = %30
  %34 = load ptr, ptr %31, align 8, !tbaa !3
  call void @PyErr_SetString(ptr noundef %34, ptr noundef nonnull @.str.30) #5
  br label %binascii_b2a_base64_impl.exit

35:                                               ; preds = %27
  %36 = shl i64 %.val33, 1
  %.not.i = icmp eq i32 %.0, 0
  %spec.select.v.i = select i1 %.not.i, i64 2, i64 3
  %spec.select.i = add i64 %36, %spec.select.v.i
  %37 = call ptr @_PyBytesWriter_Alloc(ptr noundef nonnull %5, i64 noundef %spec.select.i) #5
  %38 = icmp eq ptr %37, null
  br i1 %38, label %binascii_b2a_base64_impl.exit, label %.preheader.i

.preheader.i:                                     ; preds = %35
  %39 = icmp sgt i64 %.val33, 0
  br i1 %39, label %.lr.ph9.i, label %._crit_edge10.thread.i

.lr.ph9.i:                                        ; preds = %.preheader.i, %._crit_edge.i
  %.0368.i = phi i64 [ %54, %._crit_edge.i ], [ %.val33, %.preheader.i ]
  %.0377.i = phi i32 [ %43, %._crit_edge.i ], [ 0, %.preheader.i ]
  %.0386.i = phi ptr [ %.1.lcssa.i, %._crit_edge.i ], [ %37, %.preheader.i ]
  %.0395.i = phi i32 [ %.140.lcssa.i, %._crit_edge.i ], [ 0, %.preheader.i ]
  %.0414.i = phi ptr [ %55, %._crit_edge.i ], [ %.val32, %.preheader.i ]
  %40 = shl i32 %.0377.i, 8
  %41 = load i8, ptr %.0414.i, align 1, !tbaa !11
  %42 = zext i8 %41 to i32
  %43 = or disjoint i32 %40, %42
  %44 = add nsw i32 %.0395.i, 8
  %45 = icmp sgt i32 %.0395.i, -3
  br i1 %45, label %.lr.ph.i, label %._crit_edge.i

.lr.ph.i:                                         ; preds = %.lr.ph9.i, %.lr.ph.i
  %.12.i = phi ptr [ %52, %.lr.ph.i ], [ %.0386.i, %.lr.ph9.i ]
  %.1401.i = phi i32 [ %46, %.lr.ph.i ], [ %44, %.lr.ph9.i ]
  %46 = add nsw i32 %.1401.i, -6
  %47 = lshr i32 %43, %46
  %48 = and i32 %47, 63
  %49 = zext nneg i32 %48 to i64
  %50 = getelementptr [65 x i8], ptr @table_b2a_base64, i64 0, i64 %49
  %51 = load i8, ptr %50, align 1, !tbaa !11
  %52 = getelementptr i8, ptr %.12.i, i64 1
  store i8 %51, ptr %.12.i, align 1, !tbaa !11
  %53 = icmp samesign ugt i32 %.1401.i, 11
  br i1 %53, label %.lr.ph.i, label %._crit_edge.i, !llvm.loop !29

._crit_edge.i:                                    ; preds = %.lr.ph.i, %.lr.ph9.i
  %.140.lcssa.i = phi i32 [ %44, %.lr.ph9.i ], [ %46, %.lr.ph.i ]
  %.1.lcssa.i = phi ptr [ %.0386.i, %.lr.ph9.i ], [ %52, %.lr.ph.i ]
  %54 = add nsw i64 %.0368.i, -1
  %55 = getelementptr i8, ptr %.0414.i, i64 1
  %56 = icmp sgt i64 %.0368.i, 1
  br i1 %56, label %.lr.ph9.i, label %._crit_edge10.i, !llvm.loop !30

._crit_edge10.i:                                  ; preds = %._crit_edge.i
  switch i32 %.140.lcssa.i, label %._crit_edge10.thread.i [
    i32 2, label %57
    i32 4, label %66
  ]

57:                                               ; preds = %._crit_edge10.i
  %58 = shl nuw nsw i32 %42, 4
  %59 = and i32 %58, 48
  %60 = zext nneg i32 %59 to i64
  %61 = getelementptr [65 x i8], ptr @table_b2a_base64, i64 0, i64 %60
  %62 = load i8, ptr %61, align 16, !tbaa !11
  %63 = getelementptr i8, ptr %.1.lcssa.i, i64 1
  store i8 %62, ptr %.1.lcssa.i, align 1, !tbaa !11
  %64 = getelementptr i8, ptr %.1.lcssa.i, i64 2
  store i8 61, ptr %63, align 1, !tbaa !11
  %65 = getelementptr i8, ptr %.1.lcssa.i, i64 3
  store i8 61, ptr %64, align 1, !tbaa !11
  br label %._crit_edge10.thread.i

66:                                               ; preds = %._crit_edge10.i
  %67 = shl nuw nsw i32 %42, 2
  %68 = and i32 %67, 60
  %69 = zext nneg i32 %68 to i64
  %70 = getelementptr [65 x i8], ptr @table_b2a_base64, i64 0, i64 %69
  %71 = load i8, ptr %70, align 4, !tbaa !11
  %72 = getelementptr i8, ptr %.1.lcssa.i, i64 1
  store i8 %71, ptr %.1.lcssa.i, align 1, !tbaa !11
  %73 = getelementptr i8, ptr %.1.lcssa.i, i64 2
  store i8 61, ptr %72, align 1, !tbaa !11
  br label %._crit_edge10.thread.i

._crit_edge10.thread.i:                           ; preds = %66, %57, %._crit_edge10.i, %.preheader.i
  %.2.i = phi ptr [ %65, %57 ], [ %73, %66 ], [ %.1.lcssa.i, %._crit_edge10.i ], [ %37, %.preheader.i ]
  br i1 %.not.i, label %76, label %74

74:                                               ; preds = %._crit_edge10.thread.i
  %75 = getelementptr i8, ptr %.2.i, i64 1
  store i8 10, ptr %.2.i, align 1, !tbaa !11
  br label %76

76:                                               ; preds = %74, %._crit_edge10.thread.i
  %.3.i = phi ptr [ %75, %74 ], [ %.2.i, %._crit_edge10.thread.i ]
  %77 = call ptr @_PyBytesWriter_Finish(ptr noundef nonnull %5, ptr noundef %.3.i) #5
  br label %binascii_b2a_base64_impl.exit

binascii_b2a_base64_impl.exit:                    ; preds = %30, %33, %35, %76
  %.0.i = phi ptr [ null, %33 ], [ %77, %76 ], [ null, %30 ], [ null, %35 ]
  call void @llvm.lifetime.end.p0(i64 552, ptr nonnull %5) #5
  br label %78

78:                                               ; preds = %22, %.thread, %16, %binascii_b2a_base64_impl.exit
  %.023 = phi ptr [ null, %.thread ], [ null, %22 ], [ %.0.i, %binascii_b2a_base64_impl.exit ], [ null, %16 ]
  %79 = getelementptr inbounds nuw i8, ptr %7, i64 8
  %80 = load ptr, ptr %79, align 8, !tbaa !21
  %.not31 = icmp eq ptr %80, null
  br i1 %.not31, label %82, label %81

81:                                               ; preds = %78
  call void @PyBuffer_Release(ptr noundef nonnull %7) #5
  br label %82

82:                                               ; preds = %81, %78
  call void @llvm.lifetime.end.p0(i64 80, ptr nonnull %7) #5
  call void @llvm.lifetime.end.p0(i64 16, ptr nonnull %6) #5
  ret ptr %.023
}